target datalayout = "e-m:e-p270:32:32-p271:32:32-p272:64:64-i64:64-i128:128-f80:128-n8:16:32:64-S128"
target triple = "x86_64-pc-linux-gnu"

%"class.igl::opengl::glfw::imgui::ImGuiWidget" = type { ptr, %"class.std::__cxx11::basic_string", ptr, ptr }
%"class.std::__cxx11::basic_string" = type { %"struct.std::__cxx11::basic_string<char>::_Alloc_hider", i64, %union.anon }
%"struct.std::__cxx11::basic_string<char>::_Alloc_hider" = type { ptr }
%union.anon = type { i64, [8 x i8] }
%"class.igl::opengl::glfw::imgui::ImGuiMenu" = type { %"class.igl::opengl::glfw::imgui::ImGuiWidget", %"class.std::function", %"class.std::function", %"class.std::function" }
%"class.std::function" = type { %"class.std::_Function_base", ptr }
%"class.std::_Function_base" = type { %"union.std::_Any_data", ptr }
%"union.std::_Any_data" = type { %"union.std::_Nocopy_types" }
%"union.std::_Nocopy_types" = type { { i64, i64 } }
%struct.ImVec2 = type { float, float }

@.str = private unnamed_addr constant [7 x i8] c"Viewer\00", align 1

; Function Attrs: noinline noreturn nounwind uwtable
define linkonce_odr hidden void @__clang_call_terminate(ptr noundef %0) #9 comdat {
  %2 = call ptr @__cxa_begin_catch(ptr %0) #6
  call void @_ZSt9terminatev() #18
  unreachable
}

; Function Attrs: mustprogress nounwind uwtable
define linkonce_odr dso_local noundef zeroext i1 @_ZNKSt14_Function_base8_M_emptyEv(ptr noundef nonnull align 8 dereferenceable(24) %0) #1 comdat align 2 {
  %2 = alloca ptr, align 8
  store ptr %0, ptr %2, align 8, !tbaa !123
  %3 = load ptr, ptr %2, align 8
  %4 = getelementptr inbounds nuw %"class.std::_Function_base", ptr %3, i32 0, i32 1
  %5 = load ptr, ptr %4, align 8, !tbaa !125
  %6 = icmp ne ptr %5, null
  %7 = xor i1 %6, true
  ret i1 %7
}

; Function Attrs: mustprogress uwtable
define linkonce_odr dso_local void @_ZNKSt8functionIFvvEEclEv(ptr noundef nonnull align 8 dereferenceable(32) %0) #3 comdat align 2 {
  %2 = alloca ptr, align 8
  store ptr %0, ptr %2, align 8, !tbaa !30
  %3 = load ptr, ptr %2, align 8
  %4 = call noundef zeroext i1 @_ZNKSt14_Function_base8_M_emptyEv(ptr noundef nonnull align 8 dereferenceable(24) %3)
  br i1 %4, label %5, label %6

5:                                                ; preds = %1
  call void @_ZSt25__throw_bad_function_callv() #19
  unreachable

6:                                                ; preds = %1
  %7 = getelementptr inbounds nuw %"class.std::function", ptr %3, i32 0, i32 1
  %8 = load ptr, ptr %7, align 8, !tbaa !32
  %9 = getelementptr inbounds nuw %"class.std::_Function_base", ptr %3, i32 0, i32 0
  call void %8(ptr noundef nonnull align 8 dereferenceable(16) %9)
  ret void
}

; Function Attrs: mustprogress nounwind uwtable
define linkonce_odr dso_local noundef zeroext i1 @_ZNKSt8functionIFvvEEcvbEv(ptr noundef nonnull align 8 dereferenceable(32) %0) #1 comdat align 2 personality ptr @__gxx_personality_v0 {
  %2 = alloca ptr, align 8
  store ptr %0, ptr %2, align 8, !tbaa !30
  %3 = load ptr, ptr %2, align 8
  %4 = invoke noundef zeroext i1 @_ZNKSt14_Function_base8_M_emptyEv(ptr noundef nonnull align 8 dereferenceable(24) %3)
          to label %5 unwind label %7

5:                                                ; preds = %1
  %6 = xor i1 %4, true
  ret i1 %6

7:                                                ; preds = %1
  %8 = landingpad { ptr, i32 }
          catch ptr null
  %9 = extractvalue { ptr, i32 } %8, 0
  call void @__clang_call_terminate(ptr %9) #18
  unreachable
}

; Function Attrs: mustprogress nounwind uwtable
define linkonce_odr dso_local void @_ZN6ImVec2C2Eff(ptr noundef nonnull align 4 dereferenceable(8) %0, float noundef %1, float noundef %2) unnamed_addr #1 comdat align 2 {
  %4 = alloca ptr, align 8
  %5 = alloca float, align 4
  %6 = alloca float, align 4
  store ptr %0, ptr %4, align 8, !tbaa !37
  store float %1, ptr %5, align 4, !tbaa !39
  store float %2, ptr %6, align 4, !tbaa !39
  %7 = load ptr, ptr %4, align 8
  %8 = load float, ptr %5, align 4, !tbaa !39
  %9 = getelementptr inbounds nuw %struct.ImVec2, ptr %7, i32 0, i32 0
  store float %8, ptr %9, align 4, !tbaa !41
  %10 = load float, ptr %6, align 4, !tbaa !39
  %11 = getelementptr inbounds nuw %struct.ImVec2, ptr %7, i32 0, i32 1
  store float %10, ptr %11, align 4, !tbaa !43
  ret void
}

; Function Attrs: mustprogress uwtable
define dso_local void @_ZN3igl6opengl4glfw5imgui9ImGuiMenu18draw_viewer_windowEv(ptr noundef nonnull align 8 dereferenceable(152) %0) unnamed_addr #3 align 2 {
  %2 = alloca ptr, align 8
  %3 = alloca %struct.ImVec2, align 4
  %4 = alloca %struct.ImVec2, align 4
  %5 = alloca %struct.ImVec2, align 4
  %6 = alloca i8, align 1
  store ptr %0, ptr %2, align 8, !tbaa !15
  %7 = load ptr, ptr %2, align 8
  call void @llvm.lifetime.start.p0(i64 8, ptr %3) #6
  call void @_ZN6ImVec2C2Eff(ptr noundef nonnull align 4 dereferenceable(8) %3, float noundef 0.000000e+00, float noundef 0.000000e+00)
  call void @llvm.lifetime.start.p0(i64 8, ptr %4) #6
  call void @_ZN6ImVec2C2Eff(ptr noundef nonnull align 4 dereferenceable(8) %4, float noundef 0.000000e+00, float noundef 0.000000e+00)
  call void @_ZN5ImGui16SetNextWindowPosERK6ImVec2iS2_(ptr noundef nonnull align 4 dereferenceable(8) %3, i32 noundef 4, ptr noundef nonnull align 4 dereferenceable(8) %4)
  call void @llvm.lifetime.end.p0(i64 8, ptr %4) #6
  call void @llvm.lifetime.end.p0(i64 8, ptr %3) #6
  call void @llvm.lifetime.start.p0(i64 8, ptr %5) #6
  call void @_ZN6ImVec2C2Eff(ptr noundef nonnull align 4 dereferenceable(8) %5, float noundef 0.000000e+00, float noundef 0.000000e+00)
  call void @_ZN5ImGui17SetNextWindowSizeERK6ImVec2i(ptr noundef nonnull align 4 dereferenceable(8) %5, i32 noundef 4)
  call void @llvm.lifetime.end.p0(i64 8, ptr %5) #6
  call void @llvm.lifetime.start.p0(i64 1, ptr %6) #6
  store i8 1, ptr %6, align 1, !tbaa !35
  %8 = call noundef zeroext i1 @_ZN5ImGui5BeginEPKcPbi(ptr noundef @.str, ptr noundef %6, i32 noundef 320)
  %9 = call noundef float @_ZN5ImGui14GetWindowWidthEv()
  %10 = fmul float %9, 0x3FD99999A0000000
  call void @_ZN5ImGui13PushItemWidthEf(float noundef %10)
  %11 = getelementptr inbounds nuw %"class.igl::opengl::glfw::imgui::ImGuiMenu", ptr %7, i32 0, i32 2
  %12 = call noundef zeroext i1 @_ZNKSt8functionIFvvEEcvbEv(ptr noundef nonnull align 8 dereferenceable(32) %11) #6
  br i1 %12, label %13, label %15

13:                                               ; preds = %1
  %14 = getelementptr inbounds nuw %"class.igl::opengl::glfw::imgui::ImGuiMenu", ptr %7, i32 0, i32 2
  call void @_ZNKSt8functionIFvvEEclEv(ptr noundef nonnull align 8 dereferenceable(32) %14)
  br label %19

15:                                               ; preds = %1
  %16 = load ptr, ptr %7, align 8, !tbaa !28
  %17 = getelementptr inbounds ptr, ptr %16, i64 12
  %18 = load ptr, ptr %17, align 8
  call void %18(ptr noundef nonnull align 8 dereferenceable(152) %7)
  br label %19

19:                                               ; preds = %15, %13
  call void @_ZN5ImGui12PopItemWidthEv()
  call void @_ZN5ImGui3EndEv()
  call void @llvm.lifetime.end.p0(i64 1, ptr %6) #6
  ret void
}