; Function Attrs: mustprogress uwtable
define dso_local void @_ZN3igl6opengl4glfw5imgui9ImGuiMenu18draw_viewer_windowEv(ptr noundef nonnull align 8 dereferenceable(152) %0) unnamed_addr #2 align 2 personality ptr @__gxx_personality_v0 {
  %2 = alloca %struct.ImVec2, align 4
  %3 = alloca %struct.ImVec2, align 4
  %4 = alloca %struct.ImVec2, align 4
  %5 = alloca i8, align 1
  call void @llvm.lifetime.start.p0(i64 8, ptr nonnull %2) #13
  store float 0.000000e+00, ptr %2, align 4, !tbaa !22
  %6 = getelementptr inbounds nuw i8, ptr %2, i64 4
  store float 0.000000e+00, ptr %6, align 4, !tbaa !25
  call void @llvm.lifetime.start.p0(i64 8, ptr nonnull %3) #13
  store float 0.000000e+00, ptr %3, align 4, !tbaa !22
  %7 = getelementptr inbounds nuw i8, ptr %3, i64 4
  store float 0.000000e+00, ptr %7, align 4, !tbaa !25
  call void @_ZN5ImGui16SetNextWindowPosERK6ImVec2iS2_(ptr noundef nonnull align 4 dereferenceable(8) %2, i32 noundef 4, ptr noundef nonnull align 4 dereferenceable(8) %3)
  call void @llvm.lifetime.end.p0(i64 8, ptr nonnull %3) #13
  call void @llvm.lifetime.end.p0(i64 8, ptr nonnull %2) #13
  call void @llvm.lifetime.start.p0(i64 8, ptr nonnull %4) #13
  store float 0.000000e+00, ptr %4, align 4, !tbaa !22
  %8 = getelementptr inbounds nuw i8, ptr %4, i64 4
  store float 0.000000e+00, ptr %8, align 4, !tbaa !25
  call void @_ZN5ImGui17SetNextWindowSizeERK6ImVec2i(ptr noundef nonnull align 4 dereferenceable(8) %4, i32 noundef 4)
  call void @llvm.lifetime.end.p0(i64 8, ptr nonnull %4) #13
  call void @llvm.lifetime.start.p0(i64 1, ptr nonnull %5) #13
  store i8 1, ptr %5, align 1, !tbaa !26
  %9 = call noundef zeroext i1 @_ZN5ImGui5BeginEPKcPbi(ptr noundef nonnull @.str, ptr noundef nonnull %5, i32 noundef 320)
  %10 = call noundef float @_ZN5ImGui14GetWindowWidthEv()
  %11 = fmul float %10, 0x3FD99999A0000000
  call void @_ZN5ImGui13PushItemWidthEf(float noundef %11)
  %12 = getelementptr inbounds nuw i8, ptr %0, i64 104
  %13 = load ptr, ptr %12, align 8, !tbaa !16
  %.not.i.i.not = icmp eq ptr %13, null
  br i1 %.not.i.i.not, label %17, label %_ZNKSt8functionIFvvEEclEv.exit

_ZNKSt8functionIFvvEEclEv.exit:                   ; preds = %1
  %14 = getelementptr inbounds nuw i8, ptr %0, i64 88
  %15 = getelementptr inbounds nuw i8, ptr %0, i64 112
  %16 = load ptr, ptr %15, align 8, !tbaa !18
  call void %16(ptr noundef nonnull align 8 dereferenceable(32) %14)
  br label %21

17:                                               ; preds = %1
  %18 = load ptr, ptr %0, align 8, !tbaa !20
  %19 = getelementptr inbounds nuw i8, ptr %18, i64 96
  %20 = load ptr, ptr %19, align 8
  call void %20(ptr noundef nonnull align 8 dereferenceable(152) %0)
  br label %21

21:                                               ; preds = %17, %_ZNKSt8functionIFvvEEclEv.exit
  call void @_ZN5ImGui12PopItemWidthEv()
  call void @_ZN5ImGui3EndEv()
  call void @llvm.lifetime.end.p0(i64 1, ptr nonnull %5) #13
  ret void
}